target datalayout = "e-m:e-p270:32:32-p271:32:32-p272:64:64-i64:64-i128:128-f80:128-n8:16:32:64-S128"
target triple = "x86_64-unknown-linux-gnu"

%"struct.OpenImageIO_v2_6_0::TypeDesc" = type { i8, i8, i8, i8, i32 }
%"class.std::vector.9" = type { %"struct.std::_Vector_base.10" }
%"struct.std::_Vector_base.10" = type { %"struct.std::_Vector_base<std::__cxx11::basic_string<char>, std::allocator<std::__cxx11::basic_string<char>>>::_Vector_impl" }
%"struct.std::_Vector_base<std::__cxx11::basic_string<char>, std::allocator<std::__cxx11::basic_string<char>>>::_Vector_impl" = type { %"struct.std::_Vector_base<std::__cxx11::basic_string<char>, std::allocator<std::__cxx11::basic_string<char>>>::_Vector_impl_data" }
%"struct.std::_Vector_base<std::__cxx11::basic_string<char>, std::allocator<std::__cxx11::basic_string<char>>>::_Vector_impl_data" = type { ptr, ptr, ptr }
%"class.OpenImageIO_v2_6_0::ImageSpec" = type { i32, i32, i32, i32, i32, i32, i32, i32, i32, i32, i32, i32, i32, i32, i32, i32, %"struct.OpenImageIO_v2_6_0::TypeDesc", %"class.std::vector.52", %"class.std::vector.9", i32, i32, i8, %"class.OpenImageIO_v2_6_0::ParamValueList" }
%"class.std::vector.52" = type { %"struct.std::_Vector_base.53" }
%"struct.std::_Vector_base.53" = type { %"struct.std::_Vector_base<OpenImageIO_v2_6_0::TypeDesc, std::allocator<OpenImageIO_v2_6_0::TypeDesc>>::_Vector_impl" }
%"struct.std::_Vector_base<OpenImageIO_v2_6_0::TypeDesc, std::allocator<OpenImageIO_v2_6_0::TypeDesc>>::_Vector_impl" = type { %"struct.std::_Vector_base<OpenImageIO_v2_6_0::TypeDesc, std::allocator<OpenImageIO_v2_6_0::TypeDesc>>::_Vector_impl_data" }
%"struct.std::_Vector_base<OpenImageIO_v2_6_0::TypeDesc, std::allocator<OpenImageIO_v2_6_0::TypeDesc>>::_Vector_impl_data" = type { ptr, ptr, ptr }
%"class.OpenImageIO_v2_6_0::ParamValueList" = type { %"class.std::vector.57" }
%"class.std::vector.57" = type { %"struct.std::_Vector_base.58" }
%"struct.std::_Vector_base.58" = type { %"struct.std::_Vector_base<OpenImageIO_v2_6_0::ParamValue, std::allocator<OpenImageIO_v2_6_0::ParamValue>>::_Vector_impl" }
%"struct.std::_Vector_base<OpenImageIO_v2_6_0::ParamValue, std::allocator<OpenImageIO_v2_6_0::ParamValue>>::_Vector_impl" = type { %"struct.std::_Vector_base<OpenImageIO_v2_6_0::ParamValue, std::allocator<OpenImageIO_v2_6_0::ParamValue>>::_Vector_impl_data" }
%"struct.std::_Vector_base<OpenImageIO_v2_6_0::ParamValue, std::allocator<OpenImageIO_v2_6_0::ParamValue>>::_Vector_impl_data" = type { ptr, ptr, ptr }

; Function Attrs: mustprogress nounwind uwtable
define hidden void @_ZN18OpenImageIO_v2_6_03pvt17TextureSystemImpl18fill_gray_channelsERKNS_9ImageSpecEiPfS5_S5_S5_(ptr noundef nonnull align 8 dereferenceable(184) %this, ptr noundef nonnull align 8 dereferenceable(160) %spec, i32 noundef %nchannels, ptr noundef %result, ptr noundef %dresultds, ptr noundef %dresultdt, ptr noundef %dresultdr) #1 align 2 {
entry:
  %this.addr = alloca ptr, align 8
  %spec.addr = alloca ptr, align 8
  %nchannels.addr = alloca i32, align 4
  %result.addr = alloca ptr, align 8
  %dresultds.addr = alloca ptr, align 8
  %dresultdt.addr = alloca ptr, align 8
  %dresultdr.addr = alloca ptr, align 8
  %specchans = alloca i32, align 4
  %a = alloca float, align 4
  store ptr %this, ptr %this.addr, align 8
  store ptr %spec, ptr %spec.addr, align 8
  store i32 %nchannels, ptr %nchannels.addr, align 4
  store ptr %result, ptr %result.addr, align 8
  store ptr %dresultds, ptr %dresultds.addr, align 8
  store ptr %dresultdt, ptr %dresultdt.addr, align 8
  store ptr %dresultdr, ptr %dresultdr.addr, align 8
  %0 = load ptr, ptr %spec.addr, align 8
  %nchannels2 = getelementptr inbounds %"class.OpenImageIO_v2_6_0::ImageSpec", ptr %0, i32 0, i32 15
  %1 = load i32, ptr %nchannels2, align 4
  store i32 %1, ptr %specchans, align 4
  %2 = load i32, ptr %specchans, align 4
  %cmp = icmp eq i32 %2, 1
  br i1 %cmp, label %land.lhs.true, label %if.else

land.lhs.true:                                    ; preds = %entry
  %3 = load i32, ptr %nchannels.addr, align 4
  %cmp3 = icmp sge i32 %3, 3
  br i1 %cmp3, label %if.then, label %if.else

if.then:                                          ; preds = %land.lhs.true
  %4 = load ptr, ptr %result.addr, align 8
  %arrayidx = getelementptr inbounds float, ptr %4, i64 0
  %5 = load float, ptr %arrayidx, align 4
  %6 = load ptr, ptr %result.addr, align 8
  %arrayidx4 = getelementptr inbounds float, ptr %6, i64 1
  store float %5, ptr %arrayidx4, align 4
  %7 = load ptr, ptr %result.addr, align 8
  %arrayidx5 = getelementptr inbounds float, ptr %7, i64 0
  %8 = load float, ptr %arrayidx5, align 4
  %9 = load ptr, ptr %result.addr, align 8
  %arrayidx6 = getelementptr inbounds float, ptr %9, i64 2
  store float %8, ptr %arrayidx6, align 4
  %10 = load ptr, ptr %dresultds.addr, align 8
  %tobool = icmp ne ptr %10, null
  br i1 %tobool, label %if.then7, label %if.end22

if.then7:                                         ; preds = %if.then
  %11 = load ptr, ptr %dresultds.addr, align 8
  %arrayidx8 = getelementptr inbounds float, ptr %11, i64 0
  %12 = load float, ptr %arrayidx8, align 4
  %13 = load ptr, ptr %dresultds.addr, align 8
  %arrayidx9 = getelementptr inbounds float, ptr %13, i64 1
  store float %12, ptr %arrayidx9, align 4
  %14 = load ptr, ptr %dresultds.addr, align 8
  %arrayidx10 = getelementptr inbounds float, ptr %14, i64 0
  %15 = load float, ptr %arrayidx10, align 4
  %16 = load ptr, ptr %dresultds.addr, align 8
  %arrayidx11 = getelementptr inbounds float, ptr %16, i64 2
  store float %15, ptr %arrayidx11, align 4
  %17 = load ptr, ptr %dresultdt.addr, align 8
  %arrayidx12 = getelementptr inbounds float, ptr %17, i64 0
  %18 = load float, ptr %arrayidx12, align 4
  %19 = load ptr, ptr %dresultdt.addr, align 8
  %arrayidx13 = getelementptr inbounds float, ptr %19, i64 1
  store float %18, ptr %arrayidx13, align 4
  %20 = load ptr, ptr %dresultdt.addr, align 8
  %arrayidx14 = getelementptr inbounds float, ptr %20, i64 0
  %21 = load float, ptr %arrayidx14, align 4
  %22 = load ptr, ptr %dresultdt.addr, align 8
  %arrayidx15 = getelementptr inbounds float, ptr %22, i64 2
  store float %21, ptr %arrayidx15, align 4
  %23 = load ptr, ptr %dresultdr.addr, align 8
  %tobool16 = icmp ne ptr %23, null
  br i1 %tobool16, label %if.then17, label %if.end

if.then17:                                        ; preds = %if.then7
  %24 = load ptr, ptr %dresultdr.addr, align 8
  %arrayidx18 = getelementptr inbounds float, ptr %24, i64 0
  %25 = load float, ptr %arrayidx18, align 4
  %26 = load ptr, ptr %dresultdr.addr, align 8
  %arrayidx19 = getelementptr inbounds float, ptr %26, i64 1
  store float %25, ptr %arrayidx19, align 4
  %27 = load ptr, ptr %dresultdr.addr, align 8
  %arrayidx20 = getelementptr inbounds float, ptr %27, i64 0
  %28 = load float, ptr %arrayidx20, align 4
  %29 = load ptr, ptr %dresultdr.addr, align 8
  %arrayidx21 = getelementptr inbounds float, ptr %29, i64 2
  store float %28, ptr %arrayidx21, align 4
  br label %if.end

if.end:                                           ; preds = %if.then17, %if.then7
  br label %if.end22

if.end22:                                         ; preds = %if.end, %if.then
  br label %if.end60

if.else:                                          ; preds = %land.lhs.true, %entry
  %30 = load i32, ptr %specchans, align 4
  %cmp23 = icmp eq i32 %30, 2
  br i1 %cmp23, label %land.lhs.true24, label %if.end59

land.lhs.true24:                                  ; preds = %if.else
  %31 = load i32, ptr %nchannels.addr, align 4
  %cmp25 = icmp eq i32 %31, 4
  br i1 %cmp25, label %land.lhs.true26, label %if.end59

land.lhs.true26:                                  ; preds = %land.lhs.true24
  %32 = load ptr, ptr %spec.addr, align 8
  %alpha_channel = getelementptr inbounds %"class.OpenImageIO_v2_6_0::ImageSpec", ptr %32, i32 0, i32 19
  %33 = load i32, ptr %alpha_channel, align 8
  %cmp27 = icmp eq i32 %33, 1
  br i1 %cmp27, label %if.then28, label %if.end59

if.then28:                                        ; preds = %land.lhs.true26
  %34 = load ptr, ptr %result.addr, align 8
  %arrayidx29 = getelementptr inbounds float, ptr %34, i64 1
  %35 = load float, ptr %arrayidx29, align 4
  store float %35, ptr %a, align 4
  %36 = load ptr, ptr %result.addr, align 8
  %arrayidx30 = getelementptr inbounds float, ptr %36, i64 0
  %37 = load float, ptr %arrayidx30, align 4
  %38 = load ptr, ptr %result.addr, align 8
  %arrayidx31 = getelementptr inbounds float, ptr %38, i64 1
  store float %37, ptr %arrayidx31, align 4
  %39 = load ptr, ptr %result.addr, align 8
  %arrayidx32 = getelementptr inbounds float, ptr %39, i64 0
  %40 = load float, ptr %arrayidx32, align 4
  %41 = load ptr, ptr %result.addr, align 8
  %arrayidx33 = getelementptr inbounds float, ptr %41, i64 2
  store float %40, ptr %arrayidx33, align 4
  %42 = load float, ptr %a, align 4
  %43 = load ptr, ptr %result.addr, align 8
  %arrayidx34 = getelementptr inbounds float, ptr %43, i64 3
  store float %42, ptr %arrayidx34, align 4
  %44 = load ptr, ptr %dresultds.addr, align 8
  %tobool35 = icmp ne ptr %44, null
  br i1 %tobool35, label %if.then36, label %if.end58

if.then36:                                        ; preds = %if.then28
  %45 = load ptr, ptr %dresultds.addr, align 8
  %arrayidx37 = getelementptr inbounds float, ptr %45, i64 1
  %46 = load float, ptr %arrayidx37, align 4
  store float %46, ptr %a, align 4
  %47 = load ptr, ptr %dresultds.addr, align 8
  %arrayidx38 = getelementptr inbounds float, ptr %47, i64 0
  %48 = load float, ptr %arrayidx38, align 4
  %49 = load ptr, ptr %dresultds.addr, align 8
  %arrayidx39 = getelementptr inbounds float, ptr %49, i64 1
  store float %48, ptr %arrayidx39, align 4
  %50 = load ptr, ptr %dresultds.addr, align 8
  %arrayidx40 = getelementptr inbounds float, ptr %50, i64 0
  %51 = load float, ptr %arrayidx40, align 4
  %52 = load ptr, ptr %dresultds.addr, align 8
  %arrayidx41 = getelementptr inbounds float, ptr %52, i64 2
  store float %51, ptr %arrayidx41, align 4
  %53 = load float, ptr %a, align 4
  %54 = load ptr, ptr %dresultds.addr, align 8
  %arrayidx42 = getelementptr inbounds float, ptr %54, i64 3
  store float %53, ptr %arrayidx42, align 4
  %55 = load ptr, ptr %dresultdt.addr, align 8
  %arrayidx43 = getelementptr inbounds float, ptr %55, i64 1
  %56 = load float, ptr %arrayidx43, align 4
  store float %56, ptr %a, align 4
  %57 = load ptr, ptr %dresultdt.addr, align 8
  %arrayidx44 = getelementptr inbounds float, ptr %57, i64 0
  %58 = load float, ptr %arrayidx44, align 4
  %59 = load ptr, ptr %dresultdt.addr, align 8
  %arrayidx45 = getelementptr inbounds float, ptr %59, i64 1
  store float %58, ptr %arrayidx45, align 4
  %60 = load ptr, ptr %dresultdt.addr, align 8
  %arrayidx46 = getelementptr inbounds float, ptr %60, i64 0
  %61 = load float, ptr %arrayidx46, align 4
  %62 = load ptr, ptr %dresultdt.addr, align 8
  %arrayidx47 = getelementptr inbounds float, ptr %62, i64 2
  store float %61, ptr %arrayidx47, align 4
  %63 = load float, ptr %a, align 4
  %64 = load ptr, ptr %dresultdt.addr, align 8
  %arrayidx48 = getelementptr inbounds float, ptr %64, i64 3
  store float %63, ptr %arrayidx48, align 4
  %65 = load ptr, ptr %dresultdr.addr, align 8
  %tobool49 = icmp ne ptr %65, null
  br i1 %tobool49, label %if.then50, label %if.end57

if.then50:                                        ; preds = %if.then36
  %66 = load ptr, ptr %dresultdr.addr, align 8
  %arrayidx51 = getelementptr inbounds float, ptr %66, i64 1
  %67 = load float, ptr %arrayidx51, align 4
  store float %67, ptr %a, align 4
  %68 = load ptr, ptr %dresultdr.addr, align 8
  %arrayidx52 = getelementptr inbounds float, ptr %68, i64 0
  %69 = load float, ptr %arrayidx52, align 4
  %70 = load ptr, ptr %dresultdr.addr, align 8
  %arrayidx53 = getelementptr inbounds float, ptr %70, i64 1
  store float %69, ptr %arrayidx53, align 4
  %71 = load ptr, ptr %dresultdr.addr, align 8
  %arrayidx54 = getelementptr inbounds float, ptr %71, i64 0
  %72 = load float, ptr %arrayidx54, align 4
  %73 = load ptr, ptr %dresultdr.addr, align 8
  %arrayidx55 = getelementptr inbounds float, ptr %73, i64 2
  store float %72, ptr %arrayidx55, align 4
  %74 = load float, ptr %a, align 4
  %75 = load ptr, ptr %dresultdr.addr, align 8
  %arrayidx56 = getelementptr inbounds float, ptr %75, i64 3
  store float %74, ptr %arrayidx56, align 4
  br label %if.end57

if.end57:                                         ; preds = %if.then50, %if.then36
  br label %if.end58

if.end58:                                         ; preds = %if.end57, %if.then28
  br label %if.end59

if.end59:                                         ; preds = %if.end58, %land.lhs.true26, %land.lhs.true24, %if.else
  br label %if.end60

if.end60:                                         ; preds = %if.end59, %if.end22
  ret void
}