; Function Attrs: mustprogress nofree norecurse nosync nounwind willreturn memory(argmem: readwrite) uwtable
define hidden void @_ZN18OpenImageIO_v2_6_03pvt17TextureSystemImpl18fill_gray_channelsERKNS_9ImageSpecEiPfS5_S5_S5_(ptr nocapture nonnull readnone align 8 %this, ptr nocapture noundef nonnull readonly align 8 dereferenceable(160) %spec, i32 noundef %nchannels, ptr nocapture noundef %result, ptr noundef %dresultds, ptr nocapture noundef %dresultdt, ptr noundef %dresultdr) local_unnamed_addr #7 align 2 {
entry:
  %nchannels2 = getelementptr inbounds i8, ptr %spec, i64 60
  %0 = load i32, ptr %nchannels2, align 4
  %cmp = icmp eq i32 %0, 1
  %cmp3 = icmp sgt i32 %nchannels, 2
  %or.cond = and i1 %cmp3, %cmp
  br i1 %or.cond, label %if.then, label %if.else

if.then:                                          ; preds = %entry
  %1 = load float, ptr %result, align 4
  %arrayidx4 = getelementptr inbounds i8, ptr %result, i64 4
  store float %1, ptr %arrayidx4, align 4
  %arrayidx6 = getelementptr inbounds i8, ptr %result, i64 8
  store float %1, ptr %arrayidx6, align 4
  %tobool.not = icmp eq ptr %dresultds, null
  br i1 %tobool.not, label %if.end60, label %if.then7

if.then7:                                         ; preds = %if.then
  %2 = load float, ptr %dresultds, align 4
  %arrayidx9 = getelementptr inbounds i8, ptr %dresultds, i64 4
  store float %2, ptr %arrayidx9, align 4
  %arrayidx11 = getelementptr inbounds i8, ptr %dresultds, i64 8
  store float %2, ptr %arrayidx11, align 4
  %3 = load float, ptr %dresultdt, align 4
  %arrayidx13 = getelementptr inbounds i8, ptr %dresultdt, i64 4
  store float %3, ptr %arrayidx13, align 4
  %arrayidx15 = getelementptr inbounds i8, ptr %dresultdt, i64 8
  store float %3, ptr %arrayidx15, align 4
  %tobool16.not = icmp eq ptr %dresultdr, null
  br i1 %tobool16.not, label %if.end60, label %if.then17

if.then17:                                        ; preds = %if.then7
  %4 = load float, ptr %dresultdr, align 4
  br label %if.end60.sink.split

if.else:                                          ; preds = %entry
  %cmp23 = icmp eq i32 %0, 2
  %cmp25 = icmp eq i32 %nchannels, 4
  %or.cond1 = and i1 %cmp25, %cmp23
  %alpha_channel = getelementptr inbounds i8, ptr %spec, i64 120
  %5 = load i32, ptr %alpha_channel, align 8
  %cmp27 = icmp eq i32 %5, 1
  %or.cond48 = select i1 %or.cond1, i1 %cmp27, i1 false
  br i1 %or.cond48, label %if.then28, label %if.end60

if.then28:                                        ; preds = %if.else
  %arrayidx29 = getelementptr inbounds i8, ptr %result, i64 4
  %arrayidx33 = getelementptr inbounds i8, ptr %result, i64 8
  %6 = load <2 x float>, ptr %result, align 4
  %7 = extractelement <2 x float> %6, i64 0
  store float %7, ptr %arrayidx29, align 4
  store <2 x float> %6, ptr %arrayidx33, align 4
  %tobool35.not = icmp eq ptr %dresultds, null
  br i1 %tobool35.not, label %if.end60, label %if.then36

if.then36:                                        ; preds = %if.then28
  %arrayidx37 = getelementptr inbounds i8, ptr %dresultds, i64 4
  %arrayidx41 = getelementptr inbounds i8, ptr %dresultds, i64 8
  %8 = load <2 x float>, ptr %dresultds, align 4
  %9 = extractelement <2 x float> %8, i64 0
  store float %9, ptr %arrayidx37, align 4
  store <2 x float> %8, ptr %arrayidx41, align 4
  %arrayidx43 = getelementptr inbounds i8, ptr %dresultdt, i64 4
  %arrayidx47 = getelementptr inbounds i8, ptr %dresultdt, i64 8
  %10 = load <2 x float>, ptr %dresultdt, align 4
  %11 = extractelement <2 x float> %10, i64 0
  store float %11, ptr %arrayidx43, align 4
  store <2 x float> %10, ptr %arrayidx47, align 4
  %tobool49.not = icmp eq ptr %dresultdr, null
  br i1 %tobool49.not, label %if.end60, label %if.then50

if.then50:                                        ; preds = %if.then36
  %arrayidx51 = getelementptr inbounds i8, ptr %dresultdr, i64 4
  %12 = load float, ptr %arrayidx51, align 4
  %13 = load float, ptr %dresultdr, align 4
  store float %13, ptr %arrayidx51, align 4
  br label %if.end60.sink.split

if.end60.sink.split:                              ; preds = %if.then17, %if.then50
  %.sink51 = phi i64 [ 8, %if.then50 ], [ 4, %if.then17 ]
  %.sink50 = phi float [ %13, %if.then50 ], [ %4, %if.then17 ]
  %.sink49 = phi i64 [ 12, %if.then50 ], [ 8, %if.then17 ]
  %.sink = phi float [ %12, %if.then50 ], [ %4, %if.then17 ]
  %arrayidx55 = getelementptr inbounds i8, ptr %dresultdr, i64 %.sink51
  store float %.sink50, ptr %arrayidx55, align 4
  %arrayidx56 = getelementptr inbounds i8, ptr %dresultdr, i64 %.sink49
  store float %.sink, ptr %arrayidx56, align 4
  br label %if.end60

if.end60:                                         ; preds = %if.end60.sink.split, %if.else, %if.then36, %if.then28, %if.then, %if.then7
  ret void
}